; Function Attrs: nounwind uwtable
define internal fastcc i32 @Dec_FactorTrivialTree_rec(ptr noundef %0, ptr noundef %1, i32 noundef %2, i32 noundef range(i32 0, 2) %3) unnamed_addr #0 {
  %5 = icmp eq i32 %2, 1
  br i1 %5, label %6, label %7

6:                                                ; preds = %4
  %.sroa.021.0.copyload = load i32, ptr %1, align 4, !tbaa !16
  br label %81

7:                                                ; preds = %4
  %8 = sdiv i32 %2, 2
  %9 = sub nsw i32 %2, %8
  %10 = tail call fastcc i32 @Dec_FactorTrivialTree_rec(ptr noundef %0, ptr noundef %1, i32 noundef %8, i32 noundef %3)
  %11 = sext i32 %8 to i64
  %12 = getelementptr inbounds %struct.Dec_Edge_t_, ptr %1, i64 %11
  %13 = tail call fastcc i32 @Dec_FactorTrivialTree_rec(ptr noundef %0, ptr noundef %12, i32 noundef %9, i32 noundef %3)
  %.not = icmp eq i32 %3, 0
  %14 = getelementptr inbounds nuw i8, ptr %0, i64 8
  %15 = load i32, ptr %14, align 8, !tbaa !29
  %16 = getelementptr inbounds nuw i8, ptr %0, i64 12
  %17 = load i32, ptr %16, align 4, !tbaa !30
  %18 = icmp eq i32 %15, %17
  %19 = getelementptr inbounds nuw i8, ptr %0, i64 16
  %20 = load ptr, ptr %19, align 8, !tbaa !31
  br i1 %.not, label %53, label %21

21:                                               ; preds = %7
  br i1 %18, label %22, label %Dec_GraphAddNodeOr.exit

22:                                               ; preds = %21
  %.not.i.i = icmp eq ptr %20, null
  %23 = shl nsw i32 %15, 1
  %24 = sext i32 %23 to i64
  %25 = mul nsw i64 %24, 24
  br i1 %.not.i.i, label %28, label %26

26:                                               ; preds = %22
  %27 = tail call ptr @realloc(ptr noundef nonnull %20, i64 noundef %25) #9
  %.pre.i.i = load i32, ptr %16, align 4, !tbaa !30
  %.pre15.pre.i.i = load i32, ptr %14, align 8, !tbaa !29
  %.pre17.i.i = shl nsw i32 %.pre.i.i, 1
  br label %30

28:                                               ; preds = %22
  %29 = tail call noalias ptr @malloc(i64 noundef %25) #8
  br label %30

30:                                               ; preds = %28, %26
  %.pre-phi.i.i = phi i32 [ %23, %28 ], [ %.pre17.i.i, %26 ]
  %.pre15.i.i = phi i32 [ %15, %28 ], [ %.pre15.pre.i.i, %26 ]
  %31 = phi ptr [ %29, %28 ], [ %27, %26 ]
  store ptr %31, ptr %19, align 8, !tbaa !31
  store i32 %.pre-phi.i.i, ptr %16, align 4, !tbaa !30
  br label %Dec_GraphAddNodeOr.exit

Dec_GraphAddNodeOr.exit:                          ; preds = %21, %30
  %32 = phi i32 [ %.pre15.i.i, %30 ], [ %15, %21 ]
  %33 = phi ptr [ %31, %30 ], [ %20, %21 ]
  %34 = add nsw i32 %32, 1
  store i32 %34, ptr %14, align 8, !tbaa !29
  %35 = sext i32 %32 to i64
  %36 = getelementptr inbounds %struct.Dec_Node_t_, ptr %33, i64 %35
  %37 = getelementptr inbounds nuw i8, ptr %36, i64 8
  tail call void @llvm.memset.p0.i64(ptr noundef nonnull align 8 dereferenceable(24) %37, i8 0, i64 16, i1 false)
  %38 = getelementptr inbounds nuw i8, ptr %36, i64 4
  %39 = getelementptr inbounds nuw i8, ptr %36, i64 16
  %40 = shl i32 %10, 15
  %41 = and i32 %40, 32768
  %42 = shl i32 %13, 16
  %43 = and i32 %42, 65536
  %44 = or disjoint i32 %41, %43
  %45 = or disjoint i32 %44, 16384
  store i32 %45, ptr %39, align 8
  %46 = xor i32 %10, 1
  store i32 %46, ptr %36, align 8
  %47 = xor i32 %13, 1
  store i32 %47, ptr %38, align 4
  %48 = load i32, ptr %14, align 8, !tbaa !29
  %49 = shl i32 %48, 1
  %50 = add i32 %49, 2147483646
  %51 = and i32 %50, 2147483646
  %52 = or disjoint i32 %51, 1
  br label %81

53:                                               ; preds = %7
  br i1 %18, label %54, label %Dec_GraphAddNodeAnd.exit

54:                                               ; preds = %53
  %.not.i.i22 = icmp eq ptr %20, null
  %55 = shl nsw i32 %15, 1
  %56 = sext i32 %55 to i64
  %57 = mul nsw i64 %56, 24
  br i1 %.not.i.i22, label %60, label %58

58:                                               ; preds = %54
  %59 = tail call ptr @realloc(ptr noundef nonnull %20, i64 noundef %57) #9
  %.pre.i.i23 = load i32, ptr %16, align 4, !tbaa !30
  %.pre15.pre.i.i24 = load i32, ptr %14, align 8, !tbaa !29
  %.pre17.i.i25 = shl nsw i32 %.pre.i.i23, 1
  br label %62

60:                                               ; preds = %54
  %61 = tail call noalias ptr @malloc(i64 noundef %57) #8
  br label %62

62:                                               ; preds = %60, %58
  %.pre-phi.i.i26 = phi i32 [ %55, %60 ], [ %.pre17.i.i25, %58 ]
  %.pre15.i.i27 = phi i32 [ %15, %60 ], [ %.pre15.pre.i.i24, %58 ]
  %63 = phi ptr [ %61, %60 ], [ %59, %58 ]
  store ptr %63, ptr %19, align 8, !tbaa !31
  store i32 %.pre-phi.i.i26, ptr %16, align 4, !tbaa !30
  br label %Dec_GraphAddNodeAnd.exit

Dec_GraphAddNodeAnd.exit:                         ; preds = %53, %62
  %64 = phi i32 [ %.pre15.i.i27, %62 ], [ %15, %53 ]
  %65 = phi ptr [ %63, %62 ], [ %20, %53 ]
  %66 = add nsw i32 %64, 1
  store i32 %66, ptr %14, align 8, !tbaa !29
  %67 = sext i32 %64 to i64
  %68 = getelementptr inbounds %struct.Dec_Node_t_, ptr %65, i64 %67
  %69 = getelementptr inbounds nuw i8, ptr %68, i64 8
  tail call void @llvm.memset.p0.i64(ptr noundef nonnull align 8 dereferenceable(24) %69, i8 0, i64 16, i1 false)
  store i32 %10, ptr %68, align 8, !tbaa !16
  %70 = getelementptr inbounds nuw i8, ptr %68, i64 4
  store i32 %13, ptr %70, align 4, !tbaa !16
  %71 = getelementptr inbounds nuw i8, ptr %68, i64 16
  %72 = shl i32 %10, 15
  %73 = and i32 %72, 32768
  %74 = shl i32 %13, 16
  %75 = and i32 %74, 65536
  %76 = or disjoint i32 %75, %73
  store i32 %76, ptr %71, align 8
  %77 = load i32, ptr %14, align 8, !tbaa !29
  %78 = shl i32 %77, 1
  %79 = add i32 %78, 2147483646
  %80 = and i32 %79, 2147483646
  br label %81

81:                                               ; preds = %Dec_GraphAddNodeAnd.exit, %Dec_GraphAddNodeOr.exit, %6
  %.sroa.021.0 = phi i32 [ %.sroa.021.0.copyload, %6 ], [ %52, %Dec_GraphAddNodeOr.exit ], [ %80, %Dec_GraphAddNodeAnd.exit ]
  ret i32 %.sroa.021.0
}